target datalayout = "e-m:e-p270:32:32-p271:32:32-p272:64:64-i64:64-i128:128-f80:128-n8:16:32:64-S128"
target triple = "x86_64-unknown-linux-gnu"

%struct.conf_value_st = type { ptr, ptr, ptr }

@.str.2 = private unnamed_addr constant [128 x i8] c"generated/home/dtcxzyw/WorkSpace/Projects/compilers/llvm-opt-benchmark/bench/libquic/libquic/boringssl/crypto/x509v3/v3_sxnet.c\00", align 1

; Function Attrs: nounwind uwtable
define hidden i32 @SXNET_add_id_asc(ptr noundef %psx, ptr noundef %zone, ptr noundef %user, i32 noundef %userlen) #0 {
entry:
  %retval = alloca i32, align 4
  %psx.addr = alloca ptr, align 8
  %zone.addr = alloca ptr, align 8
  %user.addr = alloca ptr, align 8
  %userlen.addr = alloca i32, align 4
  %izone = alloca ptr, align 8
  store ptr %psx, ptr %psx.addr, align 8
  store ptr %zone, ptr %zone.addr, align 8
  store ptr %user, ptr %user.addr, align 8
  store i32 %userlen, ptr %userlen.addr, align 4
  store ptr null, ptr %izone, align 8
  %0 = load ptr, ptr %zone.addr, align 8
  %call = call ptr @s2i_ASN1_INTEGER(ptr noundef null, ptr noundef %0)
  store ptr %call, ptr %izone, align 8
  %tobool = icmp ne ptr %call, null
  br i1 %tobool, label %if.end, label %if.then

if.then:                                          ; preds = %entry
  call void @ERR_put_error(i32 noundef 20, i32 noundef 0, i32 noundef 108, ptr noundef @.str.2, i32 noundef 161)
  store i32 0, ptr %retval, align 4
  br label %return

if.end:                                           ; preds = %entry
  %1 = load ptr, ptr %psx.addr, align 8
  %2 = load ptr, ptr %izone, align 8
  %3 = load ptr, ptr %user.addr, align 8
  %4 = load i32, ptr %userlen.addr, align 4
  %call1 = call i32 @SXNET_add_id_INTEGER(ptr noundef %1, ptr noundef %2, ptr noundef %3, i32 noundef %4)
  store i32 %call1, ptr %retval, align 4
  br label %return

return:                                           ; preds = %if.end, %if.then
  %5 = load i32, ptr %retval, align 4
  ret i32 %5
}

; Function Attrs: nounwind uwtable
define internal ptr @sxnet_v2i(ptr noundef %method, ptr noundef %ctx, ptr noundef %nval) #0 {
entry:
  %retval = alloca ptr, align 8
  %method.addr = alloca ptr, align 8
  %ctx.addr = alloca ptr, align 8
  %nval.addr = alloca ptr, align 8
  %cnf = alloca ptr, align 8
  %sx = alloca ptr, align 8
  %i = alloca i64, align 8
  store ptr %method, ptr %method.addr, align 8
  store ptr %ctx, ptr %ctx.addr, align 8
  store ptr %nval, ptr %nval.addr, align 8
  store ptr null, ptr %sx, align 8
  store i64 0, ptr %i, align 8
  br label %for.cond

for.cond:                                         ; preds = %for.inc, %entry
  %0 = load i64, ptr %i, align 8
  %1 = load ptr, ptr %nval.addr, align 8
  %call = call i64 @sk_num(ptr noundef %1)
  %cmp = icmp ult i64 %0, %call
  br i1 %cmp, label %for.body, label %for.end

for.body:                                         ; preds = %for.cond
  %2 = load ptr, ptr %nval.addr, align 8
  %3 = load i64, ptr %i, align 8
  %call1 = call ptr @sk_value(ptr noundef %2, i64 noundef %3)
  store ptr %call1, ptr %cnf, align 8
  %4 = load ptr, ptr %cnf, align 8
  %name = getelementptr inbounds %struct.conf_value_st, ptr %4, i32 0, i32 1
  %5 = load ptr, ptr %name, align 8
  %6 = load ptr, ptr %cnf, align 8
  %value = getelementptr inbounds %struct.conf_value_st, ptr %6, i32 0, i32 2
  %7 = load ptr, ptr %value, align 8
  %call2 = call i32 @SXNET_add_id_asc(ptr noundef %sx, ptr noundef %5, ptr noundef %7, i32 noundef -1)
  %tobool = icmp ne i32 %call2, 0
  br i1 %tobool, label %if.end, label %if.then

if.then:                                          ; preds = %for.body
  store ptr null, ptr %retval, align 8
  br label %return

if.end:                                           ; preds = %for.body
  br label %for.inc

for.inc:                                          ; preds = %if.end
  %8 = load i64, ptr %i, align 8
  %inc = add i64 %8, 1
  store i64 %inc, ptr %i, align 8
  br label %for.cond, !llvm.loop !7

for.end:                                          ; preds = %for.cond
  %9 = load ptr, ptr %sx, align 8
  store ptr %9, ptr %retval, align 8
  br label %return

return:                                           ; preds = %for.end, %if.then
  %10 = load ptr, ptr %retval, align 8
  ret ptr %10
}