; Function Attrs: nounwind uwtable
define internal ptr @sxnet_v2i(ptr readnone captures(none) %method, ptr readnone captures(none) %ctx, ptr noundef %nval) #0 {
entry:
  %sx = alloca ptr, align 8
  store ptr null, ptr %sx, align 8
  %call7 = tail call i64 @sk_num(ptr noundef %nval) #4
  %cmp8.not = icmp eq i64 %call7, 0
  br i1 %cmp8.not, label %return, label %for.body

for.cond:                                         ; preds = %SXNET_add_id_asc.exit
  %inc = add nuw i64 %i.09, 1
  %call = call i64 @sk_num(ptr noundef %nval) #4
  %cmp = icmp ult i64 %inc, %call
  br i1 %cmp, label %for.body, label %for.end.loopexit, !llvm.loop !7

for.body:                                         ; preds = %entry, %for.cond
  %i.09 = phi i64 [ %inc, %for.cond ], [ 0, %entry ]
  %call1 = call ptr @sk_value(ptr noundef %nval, i64 noundef %i.09) #4
  %name = getelementptr inbounds nuw i8, ptr %call1, i64 8
  %0 = load ptr, ptr %name, align 8
  %value = getelementptr inbounds nuw i8, ptr %call1, i64 16
  %1 = load ptr, ptr %value, align 8
  %call.i = call ptr @s2i_ASN1_INTEGER(ptr noundef null, ptr noundef %0) #4
  %tobool.not.i = icmp eq ptr %call.i, null
  br i1 %tobool.not.i, label %SXNET_add_id_asc.exit.thread, label %SXNET_add_id_asc.exit

SXNET_add_id_asc.exit.thread:                     ; preds = %for.body
  call void @ERR_put_error(i32 noundef 20, i32 noundef 0, i32 noundef 108, ptr noundef nonnull @.str.2, i32 noundef 161) #4
  br label %return

SXNET_add_id_asc.exit:                            ; preds = %for.body
  %call1.i = call i32 @SXNET_add_id_INTEGER(ptr noundef nonnull %sx, ptr noundef nonnull %call.i, ptr noundef %1, i32 noundef -1)
  %tobool.not = icmp eq i32 %call1.i, 0
  br i1 %tobool.not, label %return, label %for.cond

for.end.loopexit:                                 ; preds = %for.cond
  %.pre = load ptr, ptr %sx, align 8
  br label %return

return:                                           ; preds = %SXNET_add_id_asc.exit, %entry, %for.end.loopexit, %SXNET_add_id_asc.exit.thread
  %retval.0 = phi ptr [ null, %SXNET_add_id_asc.exit.thread ], [ %.pre, %for.end.loopexit ], [ null, %entry ], [ null, %SXNET_add_id_asc.exit ]
  ret ptr %retval.0
}